; Function Attrs: mustprogress uwtable
define noundef zeroext i1 @_ZN17grpc_event_engine12experimental12PipeWakeupFd11IsSupportedEv() local_unnamed_addr #3 align 2 personality ptr @__gxx_personality_v0 {
entry:
  %pipe_wakeup_fd = alloca %"class.grpc_event_engine::experimental::PipeWakeupFd", align 8
  %ref.tmp = alloca %"class.absl::lts_20230802::Status", align 8
  %read_fd_.i.i = getelementptr inbounds i8, ptr %pipe_wakeup_fd, i64 8
  store i32 0, ptr %read_fd_.i.i, align 8
  %write_fd_.i.i = getelementptr inbounds i8, ptr %pipe_wakeup_fd, i64 12
  store i32 0, ptr %write_fd_.i.i, align 4
  store ptr getelementptr inbounds ({ [6 x ptr] }, ptr @_ZTVN17grpc_event_engine12experimental12PipeWakeupFdE, i64 0, i32 0, i64 2), ptr %pipe_wakeup_fd, align 8
  invoke void @_ZN17grpc_event_engine12experimental12PipeWakeupFd4InitEv(ptr nonnull sret(%"class.absl::lts_20230802::Status") align 8 %ref.tmp, ptr noundef nonnull align 8 dereferenceable(16) %pipe_wakeup_fd)
          to label %invoke.cont2 unwind label %lpad

invoke.cont2:                                     ; preds = %entry
  %0 = load i64, ptr %ref.tmp, align 8
  %and.i.i.i = and i64 %0, 1
  %cmp.i.i.i = icmp eq i64 %and.i.i.i, 0
  br i1 %cmp.i.i.i, label %_ZN4absl12lts_202308026StatusD2Ev.exit, label %if.then.i.i

if.then.i.i:                                      ; preds = %invoke.cont2
  invoke void @_ZN4absl12lts_202308026Status15UnrefNonInlinedEm(i64 noundef %0)
          to label %_ZN4absl12lts_202308026StatusD2Ev.exit unwind label %terminate.lpad.i

terminate.lpad.i:                                 ; preds = %if.then.i.i
  %1 = landingpad { ptr, i32 }
          catch ptr null
  %2 = extractvalue { ptr, i32 } %1, 0
  call void @__clang_call_terminate(ptr %2) #14
  unreachable

_ZN4absl12lts_202308026StatusD2Ev.exit:           ; preds = %invoke.cont2, %if.then.i.i
  %cmp.i = icmp eq i64 %0, 0
  call void @_ZN17grpc_event_engine12experimental12PipeWakeupFdD1Ev(ptr noundef nonnull align 8 dereferenceable(16) %pipe_wakeup_fd) #12
  ret i1 %cmp.i

lpad:                                             ; preds = %entry
  %3 = landingpad { ptr, i32 }
          cleanup
  call void @_ZN17grpc_event_engine12experimental12PipeWakeupFdD1Ev(ptr noundef nonnull align 8 dereferenceable(16) %pipe_wakeup_fd) #12
  resume { ptr, i32 } %3
}